
main:     file format elf64-x86-64


Disassembly of section .init:

00000000000006b8 <_init>:
 6b8:	48 83 ec 08          	sub    $0x8,%rsp
 6bc:	48 8b 05 25 19 20 00 	mov    0x201925(%rip),%rax        # 201fe8 <__gmon_start__>
 6c3:	48 85 c0             	test   %rax,%rax
 6c6:	74 02                	je     6ca <_init+0x12>
 6c8:	ff d0                	callq  *%rax
 6ca:	48 83 c4 08          	add    $0x8,%rsp
 6ce:	c3                   	retq   

Disassembly of section .plt:

00000000000006d0 <.plt>:
 6d0:	ff 35 b2 18 20 00    	pushq  0x2018b2(%rip)        # 201f88 <_GLOBAL_OFFSET_TABLE_+0x8>
 6d6:	ff 25 b4 18 20 00    	jmpq   *0x2018b4(%rip)        # 201f90 <_GLOBAL_OFFSET_TABLE_+0x10>
 6dc:	0f 1f 40 00          	nopl   0x0(%rax)

00000000000006e0 <putchar@plt>:
 6e0:	ff 25 b2 18 20 00    	jmpq   *0x2018b2(%rip)        # 201f98 <putchar@GLIBC_2.2.5>
 6e6:	68 00 00 00 00       	pushq  $0x0
 6eb:	e9 e0 ff ff ff       	jmpq   6d0 <.plt>

00000000000006f0 <puts@plt>:
 6f0:	ff 25 aa 18 20 00    	jmpq   *0x2018aa(%rip)        # 201fa0 <puts@GLIBC_2.2.5>
 6f6:	68 01 00 00 00       	pushq  $0x1
 6fb:	e9 d0 ff ff ff       	jmpq   6d0 <.plt>

0000000000000700 <__stack_chk_fail@plt>:
 700:	ff 25 a2 18 20 00    	jmpq   *0x2018a2(%rip)        # 201fa8 <__stack_chk_fail@GLIBC_2.4>
 706:	68 02 00 00 00       	pushq  $0x2
 70b:	e9 c0 ff ff ff       	jmpq   6d0 <.plt>

0000000000000710 <printf@plt>:
 710:	ff 25 9a 18 20 00    	jmpq   *0x20189a(%rip)        # 201fb0 <printf@GLIBC_2.2.5>
 716:	68 03 00 00 00       	pushq  $0x3
 71b:	e9 b0 ff ff ff       	jmpq   6d0 <.plt>

0000000000000720 <srand@plt>:
 720:	ff 25 92 18 20 00    	jmpq   *0x201892(%rip)        # 201fb8 <srand@GLIBC_2.2.5>
 726:	68 04 00 00 00       	pushq  $0x4
 72b:	e9 a0 ff ff ff       	jmpq   6d0 <.plt>

0000000000000730 <time@plt>:
 730:	ff 25 8a 18 20 00    	jmpq   *0x20188a(%rip)        # 201fc0 <time@GLIBC_2.2.5>
 736:	68 05 00 00 00       	pushq  $0x5
 73b:	e9 90 ff ff ff       	jmpq   6d0 <.plt>

0000000000000740 <__isoc99_scanf@plt>:
 740:	ff 25 82 18 20 00    	jmpq   *0x201882(%rip)        # 201fc8 <__isoc99_scanf@GLIBC_2.7>
 746:	68 06 00 00 00       	pushq  $0x6
 74b:	e9 80 ff ff ff       	jmpq   6d0 <.plt>

0000000000000750 <rand@plt>:
 750:	ff 25 7a 18 20 00    	jmpq   *0x20187a(%rip)        # 201fd0 <rand@GLIBC_2.2.5>
 756:	68 07 00 00 00       	pushq  $0x7
 75b:	e9 70 ff ff ff       	jmpq   6d0 <.plt>

Disassembly of section .plt.got:

0000000000000760 <__cxa_finalize@plt>:
 760:	ff 25 92 18 20 00    	jmpq   *0x201892(%rip)        # 201ff8 <__cxa_finalize@GLIBC_2.2.5>
 766:	66 90                	xchg   %ax,%ax

Disassembly of section .text:

0000000000000770 <_start>:
 770:	31 ed                	xor    %ebp,%ebp
 772:	49 89 d1             	mov    %rdx,%r9
 775:	5e                   	pop    %rsi
 776:	48 89 e2             	mov    %rsp,%rdx
 779:	48 83 e4 f0          	and    $0xfffffffffffffff0,%rsp
 77d:	50                   	push   %rax
 77e:	54                   	push   %rsp
 77f:	4c 8d 05 ea 04 00 00 	lea    0x4ea(%rip),%r8        # c70 <__libc_csu_fini>
 786:	48 8d 0d 73 04 00 00 	lea    0x473(%rip),%rcx        # c00 <__libc_csu_init>
 78d:	48 8d 3d e6 00 00 00 	lea    0xe6(%rip),%rdi        # 87a <main>
 794:	ff 15 46 18 20 00    	callq  *0x201846(%rip)        # 201fe0 <__libc_start_main@GLIBC_2.2.5>
 79a:	f4                   	hlt    
 79b:	0f 1f 44 00 00       	nopl   0x0(%rax,%rax,1)

00000000000007a0 <deregister_tm_clones>:
 7a0:	48 8d 3d 69 18 20 00 	lea    0x201869(%rip),%rdi        # 202010 <__TMC_END__>
 7a7:	55                   	push   %rbp
 7a8:	48 8d 05 61 18 20 00 	lea    0x201861(%rip),%rax        # 202010 <__TMC_END__>
 7af:	48 39 f8             	cmp    %rdi,%rax
 7b2:	48 89 e5             	mov    %rsp,%rbp
 7b5:	74 19                	je     7d0 <deregister_tm_clones+0x30>
 7b7:	48 8b 05 1a 18 20 00 	mov    0x20181a(%rip),%rax        # 201fd8 <_ITM_deregisterTMCloneTable>
 7be:	48 85 c0             	test   %rax,%rax
 7c1:	74 0d                	je     7d0 <deregister_tm_clones+0x30>
 7c3:	5d                   	pop    %rbp
 7c4:	ff e0                	jmpq   *%rax
 7c6:	66 2e 0f 1f 84 00 00 	nopw   %cs:0x0(%rax,%rax,1)
 7cd:	00 00 00 
 7d0:	5d                   	pop    %rbp
 7d1:	c3                   	retq   
 7d2:	0f 1f 40 00          	nopl   0x0(%rax)
 7d6:	66 2e 0f 1f 84 00 00 	nopw   %cs:0x0(%rax,%rax,1)
 7dd:	00 00 00 

00000000000007e0 <register_tm_clones>:
 7e0:	48 8d 3d 29 18 20 00 	lea    0x201829(%rip),%rdi        # 202010 <__TMC_END__>
 7e7:	48 8d 35 22 18 20 00 	lea    0x201822(%rip),%rsi        # 202010 <__TMC_END__>
 7ee:	55                   	push   %rbp
 7ef:	48 29 fe             	sub    %rdi,%rsi
 7f2:	48 89 e5             	mov    %rsp,%rbp
 7f5:	48 c1 fe 03          	sar    $0x3,%rsi
 7f9:	48 89 f0             	mov    %rsi,%rax
 7fc:	48 c1 e8 3f          	shr    $0x3f,%rax
 800:	48 01 c6             	add    %rax,%rsi
 803:	48 d1 fe             	sar    %rsi
 806:	74 18                	je     820 <register_tm_clones+0x40>
 808:	48 8b 05 e1 17 20 00 	mov    0x2017e1(%rip),%rax        # 201ff0 <_ITM_registerTMCloneTable>
 80f:	48 85 c0             	test   %rax,%rax
 812:	74 0c                	je     820 <register_tm_clones+0x40>
 814:	5d                   	pop    %rbp
 815:	ff e0                	jmpq   *%rax
 817:	66 0f 1f 84 00 00 00 	nopw   0x0(%rax,%rax,1)
 81e:	00 00 
 820:	5d                   	pop    %rbp
 821:	c3                   	retq   
 822:	0f 1f 40 00          	nopl   0x0(%rax)
 826:	66 2e 0f 1f 84 00 00 	nopw   %cs:0x0(%rax,%rax,1)
 82d:	00 00 00 

0000000000000830 <__do_global_dtors_aux>:
 830:	80 3d d9 17 20 00 00 	cmpb   $0x0,0x2017d9(%rip)        # 202010 <__TMC_END__>
 837:	75 2f                	jne    868 <__do_global_dtors_aux+0x38>
 839:	48 83 3d b7 17 20 00 	cmpq   $0x0,0x2017b7(%rip)        # 201ff8 <__cxa_finalize@GLIBC_2.2.5>
 840:	00 
 841:	55                   	push   %rbp
 842:	48 89 e5             	mov    %rsp,%rbp
 845:	74 0c                	je     853 <__do_global_dtors_aux+0x23>
 847:	48 8b 3d ba 17 20 00 	mov    0x2017ba(%rip),%rdi        # 202008 <__dso_handle>
 84e:	e8 0d ff ff ff       	callq  760 <__cxa_finalize@plt>
 853:	e8 48 ff ff ff       	callq  7a0 <deregister_tm_clones>
 858:	c6 05 b1 17 20 00 01 	movb   $0x1,0x2017b1(%rip)        # 202010 <__TMC_END__>
 85f:	5d                   	pop    %rbp
 860:	c3                   	retq   
 861:	0f 1f 80 00 00 00 00 	nopl   0x0(%rax)
 868:	f3 c3                	repz retq 
 86a:	66 0f 1f 44 00 00    	nopw   0x0(%rax,%rax,1)

0000000000000870 <frame_dummy>:
 870:	55                   	push   %rbp
 871:	48 89 e5             	mov    %rsp,%rbp
 874:	5d                   	pop    %rbp
 875:	e9 66 ff ff ff       	jmpq   7e0 <register_tm_clones>

000000000000087a <main>:
 87a:	55                   	push   %rbp
 87b:	48 89 e5             	mov    %rsp,%rbp
 87e:	48 83 c4 80          	add    $0xffffffffffffff80,%rsp
 882:	64 48 8b 04 25 28 00 	mov    %fs:0x28,%rax
 889:	00 00 
 88b:	48 89 45 f8          	mov    %rax,-0x8(%rbp)
 88f:	31 c0                	xor    %eax,%eax
 891:	c7 45 98 00 00 00 00 	movl   $0x0,-0x68(%rbp)
 898:	bf 00 00 00 00       	mov    $0x0,%edi
 89d:	e8 8e fe ff ff       	callq  730 <time@plt>
 8a2:	48 89 c7             	mov    %rax,%rdi
 8a5:	b8 00 00 00 00       	mov    $0x0,%eax
 8aa:	e8 71 fe ff ff       	callq  720 <srand@plt>
 8af:	c7 45 94 00 00 00 00 	movl   $0x0,-0x6c(%rbp)
 8b6:	eb 54                	jmp    90c <main+0x92>
 8b8:	b8 00 00 00 00       	mov    $0x0,%eax
 8bd:	e8 8e fe ff ff       	callq  750 <rand@plt>
 8c2:	89 c1                	mov    %eax,%ecx
 8c4:	ba 67 66 66 66       	mov    $0x66666667,%edx
 8c9:	89 c8                	mov    %ecx,%eax
 8cb:	f7 ea                	imul   %edx
 8cd:	c1 fa 02             	sar    $0x2,%edx
 8d0:	89 c8                	mov    %ecx,%eax
 8d2:	c1 f8 1f             	sar    $0x1f,%eax
 8d5:	29 c2                	sub    %eax,%edx
 8d7:	89 d0                	mov    %edx,%eax
 8d9:	c1 e0 02             	shl    $0x2,%eax
 8dc:	01 d0                	add    %edx,%eax
 8de:	01 c0                	add    %eax,%eax
 8e0:	29 c1                	sub    %eax,%ecx
 8e2:	89 ca                	mov    %ecx,%edx
 8e4:	8d 42 01             	lea    0x1(%rdx),%eax
 8e7:	89 45 98             	mov    %eax,-0x68(%rbp)
 8ea:	8b 45 94             	mov    -0x6c(%rbp),%eax
 8ed:	48 98                	cltq   
 8ef:	8b 55 98             	mov    -0x68(%rbp),%edx
 8f2:	89 54 85 a0          	mov    %edx,-0x60(%rbp,%rax,4)
 8f6:	8b 45 94             	mov    -0x6c(%rbp),%eax
 8f9:	48 98                	cltq   
 8fb:	8b 54 85 a0          	mov    -0x60(%rbp,%rax,4),%edx
 8ff:	8b 45 94             	mov    -0x6c(%rbp),%eax
 902:	48 98                	cltq   
 904:	89 54 85 d0          	mov    %edx,-0x30(%rbp,%rax,4)
 908:	83 45 94 01          	addl   $0x1,-0x6c(%rbp)
 90c:	83 7d 94 09          	cmpl   $0x9,-0x6c(%rbp)
 910:	7e a6                	jle    8b8 <main+0x3e>
 912:	48 8d 45 a0          	lea    -0x60(%rbp),%rax
 916:	48 8d 15 6b 03 00 00 	lea    0x36b(%rip),%rdx        # c88 <_IO_stdin_used+0x8>
 91d:	be 0a 00 00 00       	mov    $0xa,%esi
 922:	48 89 c7             	mov    %rax,%rdi
 925:	e8 2e 01 00 00       	callq  a58 <printResult>
 92a:	c6 45 8f 01          	movb   $0x1,-0x71(%rbp)
 92e:	e9 00 01 00 00       	jmpq   a33 <main+0x1b9>
 933:	48 8d 3d 5e 03 00 00 	lea    0x35e(%rip),%rdi        # c98 <_IO_stdin_used+0x18>
 93a:	b8 00 00 00 00       	mov    $0x0,%eax
 93f:	e8 cc fd ff ff       	callq  710 <printf@plt>
 944:	48 8d 3d 78 03 00 00 	lea    0x378(%rip),%rdi        # cc3 <_IO_stdin_used+0x43>
 94b:	b8 00 00 00 00       	mov    $0x0,%eax
 950:	e8 bb fd ff ff       	callq  710 <printf@plt>
 955:	c7 45 90 00 00 00 00 	movl   $0x0,-0x70(%rbp)
 95c:	48 8d 45 90          	lea    -0x70(%rbp),%rax
 960:	48 89 c6             	mov    %rax,%rsi
 963:	48 8d 3d 6b 03 00 00 	lea    0x36b(%rip),%rdi        # cd5 <_IO_stdin_used+0x55>
 96a:	b8 00 00 00 00       	mov    $0x0,%eax
 96f:	e8 cc fd ff ff       	callq  740 <__isoc99_scanf@plt>
 974:	c7 45 9c 00 00 00 00 	movl   $0x0,-0x64(%rbp)
 97b:	8b 45 90             	mov    -0x70(%rbp),%eax
 97e:	83 f8 02             	cmp    $0x2,%eax
 981:	74 2e                	je     9b1 <main+0x137>
 983:	83 f8 02             	cmp    $0x2,%eax
 986:	7f 0a                	jg     992 <main+0x118>
 988:	83 f8 01             	cmp    $0x1,%eax
 98b:	74 11                	je     99e <main+0x124>
 98d:	e9 83 00 00 00       	jmpq   a15 <main+0x19b>
 992:	83 f8 03             	cmp    $0x3,%eax
 995:	74 46                	je     9dd <main+0x163>
 997:	83 f8 04             	cmp    $0x4,%eax
 99a:	74 73                	je     a0f <main+0x195>
 99c:	eb 77                	jmp    a15 <main+0x19b>
 99e:	48 8d 45 a0          	lea    -0x60(%rbp),%rax
 9a2:	be 0a 00 00 00       	mov    $0xa,%esi
 9a7:	48 89 c7             	mov    %rax,%rdi
 9aa:	e8 1f 01 00 00       	callq  ace <BubbleSort>
 9af:	eb 76                	jmp    a27 <main+0x1ad>
 9b1:	48 8d 45 a0          	lea    -0x60(%rbp),%rax
 9b5:	be 0a 00 00 00       	mov    $0xa,%esi
 9ba:	48 89 c7             	mov    %rax,%rdi
 9bd:	e8 f2 01 00 00       	callq  bb4 <add>
 9c2:	89 45 9c             	mov    %eax,-0x64(%rbp)
 9c5:	8b 45 9c             	mov    -0x64(%rbp),%eax
 9c8:	89 c6                	mov    %eax,%esi
 9ca:	48 8d 3d 07 03 00 00 	lea    0x307(%rip),%rdi        # cd8 <_IO_stdin_used+0x58>
 9d1:	b8 00 00 00 00       	mov    $0x0,%eax
 9d6:	e8 35 fd ff ff       	callq  710 <printf@plt>
 9db:	eb 4a                	jmp    a27 <main+0x1ad>
 9dd:	48 8d 45 d0          	lea    -0x30(%rbp),%rax
 9e1:	48 8d 15 04 03 00 00 	lea    0x304(%rip),%rdx        # cec <_IO_stdin_used+0x6c>
 9e8:	be 0a 00 00 00       	mov    $0xa,%esi
 9ed:	48 89 c7             	mov    %rax,%rdi
 9f0:	e8 63 00 00 00       	callq  a58 <printResult>
 9f5:	48 8d 45 a0          	lea    -0x60(%rbp),%rax
 9f9:	48 8d 15 fe 02 00 00 	lea    0x2fe(%rip),%rdx        # cfe <_IO_stdin_used+0x7e>
 a00:	be 0a 00 00 00       	mov    $0xa,%esi
 a05:	48 89 c7             	mov    %rax,%rdi
 a08:	e8 4b 00 00 00       	callq  a58 <printResult>
 a0d:	eb 18                	jmp    a27 <main+0x1ad>
 a0f:	c6 45 8f 00          	movb   $0x0,-0x71(%rbp)
 a13:	eb 12                	jmp    a27 <main+0x1ad>
 a15:	48 8d 3d f4 02 00 00 	lea    0x2f4(%rip),%rdi        # d10 <_IO_stdin_used+0x90>
 a1c:	b8 00 00 00 00       	mov    $0x0,%eax
 a21:	e8 ea fc ff ff       	callq  710 <printf@plt>
 a26:	90                   	nop
 a27:	48 8d 3d 10 03 00 00 	lea    0x310(%rip),%rdi        # d3e <_IO_stdin_used+0xbe>
 a2e:	e8 bd fc ff ff       	callq  6f0 <puts@plt>
 a33:	80 7d 8f 00          	cmpb   $0x0,-0x71(%rbp)
 a37:	0f 85 f6 fe ff ff    	jne    933 <main+0xb9>
 a3d:	b8 00 00 00 00       	mov    $0x0,%eax
 a42:	48 8b 4d f8          	mov    -0x8(%rbp),%rcx
 a46:	64 48 33 0c 25 28 00 	xor    %fs:0x28,%rcx
 a4d:	00 00 
 a4f:	74 05                	je     a56 <main+0x1dc>
 a51:	e8 aa fc ff ff       	callq  700 <__stack_chk_fail@plt>
 a56:	c9                   	leaveq 
 a57:	c3                   	retq   

0000000000000a58 <printResult>:
 a58:	55                   	push   %rbp
 a59:	48 89 e5             	mov    %rsp,%rbp
 a5c:	48 83 ec 30          	sub    $0x30,%rsp
 a60:	48 89 7d e8          	mov    %rdi,-0x18(%rbp)
 a64:	89 75 e4             	mov    %esi,-0x1c(%rbp)
 a67:	48 89 55 d8          	mov    %rdx,-0x28(%rbp)
 a6b:	48 8b 45 d8          	mov    -0x28(%rbp),%rax
 a6f:	48 89 c6             	mov    %rax,%rsi
 a72:	48 8d 3d cd 02 00 00 	lea    0x2cd(%rip),%rdi        # d46 <_IO_stdin_used+0xc6>
 a79:	b8 00 00 00 00       	mov    $0x0,%eax
 a7e:	e8 8d fc ff ff       	callq  710 <printf@plt>
 a83:	c7 45 fc 00 00 00 00 	movl   $0x0,-0x4(%rbp)
 a8a:	eb 2d                	jmp    ab9 <printResult+0x61>
 a8c:	8b 45 fc             	mov    -0x4(%rbp),%eax
 a8f:	48 98                	cltq   
 a91:	48 8d 14 85 00 00 00 	lea    0x0(,%rax,4),%rdx
 a98:	00 
 a99:	48 8b 45 e8          	mov    -0x18(%rbp),%rax
 a9d:	48 01 d0             	add    %rdx,%rax
 aa0:	8b 00                	mov    (%rax),%eax
 aa2:	89 c6                	mov    %eax,%esi
 aa4:	48 8d 3d 9e 02 00 00 	lea    0x29e(%rip),%rdi        # d49 <_IO_stdin_used+0xc9>
 aab:	b8 00 00 00 00       	mov    $0x0,%eax
 ab0:	e8 5b fc ff ff       	callq  710 <printf@plt>
 ab5:	83 45 fc 01          	addl   $0x1,-0x4(%rbp)
 ab9:	8b 45 fc             	mov    -0x4(%rbp),%eax
 abc:	3b 45 e4             	cmp    -0x1c(%rbp),%eax
 abf:	7c cb                	jl     a8c <printResult+0x34>
 ac1:	bf 0a 00 00 00       	mov    $0xa,%edi
 ac6:	e8 15 fc ff ff       	callq  6e0 <putchar@plt>
 acb:	90                   	nop
 acc:	c9                   	leaveq 
 acd:	c3                   	retq   

0000000000000ace <BubbleSort>:
 ace:	55                   	push   %rbp
 acf:	48 89 e5             	mov    %rsp,%rbp
 ad2:	48 89 7d e8          	mov    %rdi,-0x18(%rbp)
 ad6:	89 75 e4             	mov    %esi,-0x1c(%rbp)
 ad9:	83 7d e4 01          	cmpl   $0x1,-0x1c(%rbp)
 add:	0f 8e ce 00 00 00    	jle    bb1 <BubbleSort+0xe3>
 ae3:	c7 45 f4 00 00 00 00 	movl   $0x0,-0xc(%rbp)
 aea:	e9 b1 00 00 00       	jmpq   ba0 <BubbleSort+0xd2>
 aef:	8b 45 e4             	mov    -0x1c(%rbp),%eax
 af2:	83 e8 01             	sub    $0x1,%eax
 af5:	89 45 f8             	mov    %eax,-0x8(%rbp)
 af8:	e9 93 00 00 00       	jmpq   b90 <BubbleSort+0xc2>
 afd:	8b 45 f8             	mov    -0x8(%rbp),%eax
 b00:	48 98                	cltq   
 b02:	48 8d 14 85 00 00 00 	lea    0x0(,%rax,4),%rdx
 b09:	00 
 b0a:	48 8b 45 e8          	mov    -0x18(%rbp),%rax
 b0e:	48 01 d0             	add    %rdx,%rax
 b11:	8b 10                	mov    (%rax),%edx
 b13:	8b 45 f8             	mov    -0x8(%rbp),%eax
 b16:	48 98                	cltq   
 b18:	48 c1 e0 02          	shl    $0x2,%rax
 b1c:	48 8d 48 fc          	lea    -0x4(%rax),%rcx
 b20:	48 8b 45 e8          	mov    -0x18(%rbp),%rax
 b24:	48 01 c8             	add    %rcx,%rax
 b27:	8b 00                	mov    (%rax),%eax
 b29:	39 c2                	cmp    %eax,%edx
 b2b:	7d 5f                	jge    b8c <BubbleSort+0xbe>
 b2d:	8b 45 f8             	mov    -0x8(%rbp),%eax
 b30:	48 98                	cltq   
 b32:	48 c1 e0 02          	shl    $0x2,%rax
 b36:	48 8d 50 fc          	lea    -0x4(%rax),%rdx
 b3a:	48 8b 45 e8          	mov    -0x18(%rbp),%rax
 b3e:	48 01 d0             	add    %rdx,%rax
 b41:	8b 00                	mov    (%rax),%eax
 b43:	89 45 fc             	mov    %eax,-0x4(%rbp)
 b46:	8b 45 f8             	mov    -0x8(%rbp),%eax
 b49:	48 98                	cltq   
 b4b:	48 8d 14 85 00 00 00 	lea    0x0(,%rax,4),%rdx
 b52:	00 
 b53:	48 8b 45 e8          	mov    -0x18(%rbp),%rax
 b57:	48 01 d0             	add    %rdx,%rax
 b5a:	8b 55 f8             	mov    -0x8(%rbp),%edx
 b5d:	48 63 d2             	movslq %edx,%rdx
 b60:	48 c1 e2 02          	shl    $0x2,%rdx
 b64:	48 8d 4a fc          	lea    -0x4(%rdx),%rcx
 b68:	48 8b 55 e8          	mov    -0x18(%rbp),%rdx
 b6c:	48 01 ca             	add    %rcx,%rdx
 b6f:	8b 00                	mov    (%rax),%eax
 b71:	89 02                	mov    %eax,(%rdx)
 b73:	8b 45 f8             	mov    -0x8(%rbp),%eax
 b76:	48 98                	cltq   
 b78:	48 8d 14 85 00 00 00 	lea    0x0(,%rax,4),%rdx
 b7f:	00 
 b80:	48 8b 45 e8          	mov    -0x18(%rbp),%rax
 b84:	48 01 c2             	add    %rax,%rdx
 b87:	8b 45 fc             	mov    -0x4(%rbp),%eax
 b8a:	89 02                	mov    %eax,(%rdx)
 b8c:	83 6d f8 01          	subl   $0x1,-0x8(%rbp)
 b90:	8b 45 f8             	mov    -0x8(%rbp),%eax
 b93:	3b 45 f4             	cmp    -0xc(%rbp),%eax
 b96:	0f 8f 61 ff ff ff    	jg     afd <BubbleSort+0x2f>
 b9c:	83 45 f4 01          	addl   $0x1,-0xc(%rbp)
 ba0:	8b 45 e4             	mov    -0x1c(%rbp),%eax
 ba3:	83 e8 01             	sub    $0x1,%eax
 ba6:	39 45 f4             	cmp    %eax,-0xc(%rbp)
 ba9:	0f 8c 40 ff ff ff    	jl     aef <BubbleSort+0x21>
 baf:	eb 01                	jmp    bb2 <BubbleSort+0xe4>
 bb1:	90                   	nop
 bb2:	5d                   	pop    %rbp
 bb3:	c3                   	retq   

0000000000000bb4 <add>:
 bb4:	55                   	push   %rbp
 bb5:	48 89 e5             	mov    %rsp,%rbp
 bb8:	48 89 7d e8          	mov    %rdi,-0x18(%rbp)
 bbc:	89 75 e4             	mov    %esi,-0x1c(%rbp)
 bbf:	c7 45 f8 00 00 00 00 	movl   $0x0,-0x8(%rbp)
 bc6:	c7 45 fc 00 00 00 00 	movl   $0x0,-0x4(%rbp)
 bcd:	eb 1d                	jmp    bec <add+0x38>
 bcf:	8b 45 fc             	mov    -0x4(%rbp),%eax
 bd2:	48 98                	cltq   
 bd4:	48 8d 14 85 00 00 00 	lea    0x0(,%rax,4),%rdx
 bdb:	00 
 bdc:	48 8b 45 e8          	mov    -0x18(%rbp),%rax
 be0:	48 01 d0             	add    %rdx,%rax
 be3:	8b 00                	mov    (%rax),%eax
 be5:	01 45 f8             	add    %eax,-0x8(%rbp)
 be8:	83 45 fc 01          	addl   $0x1,-0x4(%rbp)
 bec:	8b 45 fc             	mov    -0x4(%rbp),%eax
 bef:	3b 45 e4             	cmp    -0x1c(%rbp),%eax
 bf2:	7c db                	jl     bcf <add+0x1b>
 bf4:	8b 45 f8             	mov    -0x8(%rbp),%eax
 bf7:	5d                   	pop    %rbp
 bf8:	c3                   	retq   
 bf9:	0f 1f 80 00 00 00 00 	nopl   0x0(%rax)

0000000000000c00 <__libc_csu_init>:
 c00:	41 57                	push   %r15
 c02:	41 56                	push   %r14
 c04:	49 89 d7             	mov    %rdx,%r15
 c07:	41 55                	push   %r13
 c09:	41 54                	push   %r12
 c0b:	4c 8d 25 6e 11 20 00 	lea    0x20116e(%rip),%r12        # 201d80 <__frame_dummy_init_array_entry>
 c12:	55                   	push   %rbp
 c13:	48 8d 2d 6e 11 20 00 	lea    0x20116e(%rip),%rbp        # 201d88 <__init_array_end>
 c1a:	53                   	push   %rbx
 c1b:	41 89 fd             	mov    %edi,%r13d
 c1e:	49 89 f6             	mov    %rsi,%r14
 c21:	4c 29 e5             	sub    %r12,%rbp
 c24:	48 83 ec 08          	sub    $0x8,%rsp
 c28:	48 c1 fd 03          	sar    $0x3,%rbp
 c2c:	e8 87 fa ff ff       	callq  6b8 <_init>
 c31:	48 85 ed             	test   %rbp,%rbp
 c34:	74 20                	je     c56 <__libc_csu_init+0x56>
 c36:	31 db                	xor    %ebx,%ebx
 c38:	0f 1f 84 00 00 00 00 	nopl   0x0(%rax,%rax,1)
 c3f:	00 
 c40:	4c 89 fa             	mov    %r15,%rdx
 c43:	4c 89 f6             	mov    %r14,%rsi
 c46:	44 89 ef             	mov    %r13d,%edi
 c49:	41 ff 14 dc          	callq  *(%r12,%rbx,8)
 c4d:	48 83 c3 01          	add    $0x1,%rbx
 c51:	48 39 dd             	cmp    %rbx,%rbp
 c54:	75 ea                	jne    c40 <__libc_csu_init+0x40>
 c56:	48 83 c4 08          	add    $0x8,%rsp
 c5a:	5b                   	pop    %rbx
 c5b:	5d                   	pop    %rbp
 c5c:	41 5c                	pop    %r12
 c5e:	41 5d                	pop    %r13
 c60:	41 5e                	pop    %r14
 c62:	41 5f                	pop    %r15
 c64:	c3                   	retq   
 c65:	90                   	nop
 c66:	66 2e 0f 1f 84 00 00 	nopw   %cs:0x0(%rax,%rax,1)
 c6d:	00 00 00 

0000000000000c70 <__libc_csu_fini>:
 c70:	f3 c3                	repz retq 

Disassembly of section .fini:

0000000000000c74 <_fini>:
 c74:	48 83 ec 08          	sub    $0x8,%rsp
 c78:	48 83 c4 08          	add    $0x8,%rsp
 c7c:	c3                   	retq   
